


ARM Macro Assembler    Page 1 


    1 00000000         ; Pulse.s
    2 00000000         ; Routine for creating a pulse train using interrupts
    3 00000000         ; This uses Channel 0, and a 1MHz Timer Clock (_TAPR = 1
                       5 )
    4 00000000         ; Uses 32/64-bit Timer 0 to create pulse train on PF2
    5 00000000         
    6 00000000         ;Nested Vector Interrupt Controller registers
    7 00000000         ;NVIC_EN0_INT94  EQU 0x00080000 ; Interrupt 94 enable
    8 00000000 E000E108 
                       NVIC_EN0
                               EQU              0xE000E108  ; IRQ 0 to 31 Set E
                                                            nable Register
    9 00000000 E000E41C 
                       NVIC_PRI4
                               EQU              0xE000E41C  ; IRQ 92 to 95 Prio
                                                            rity Register
   10 00000000         
   11 00000000         ; 32/64 Timer Registers
   12 00000000 40036000 
                       TIMER0_CFG
                               EQU              0x40036000
   13 00000000         
   14 00000000 40036004 
                       TIMER0_TAMR
                               EQU              0x40036004
   15 00000000 40036008 
                       TIMER0_TAMR_B
                               EQU              0x40036008
   16 00000000         
   17 00000000 4003600C 
                       TIMER0_CTL
                               EQU              0x4003600C
   18 00000000 40036018 
                       TIMER0_IMR
                               EQU              0x40036018
   19 00000000 4003601C 
                       TIMER0_RIS
                               EQU              0x4003601C  ; Timer Interrupt S
                                                            tatus
   20 00000000 40036024 
                       TIMER0_ICR
                               EQU              0x40036024  ; Timer Interrupt C
                                                            lear
   21 00000000         
   22 00000000 40036028 
                       TIMER0_TAILR
                               EQU              0x40036028  ; Timer interval
   23 00000000 4003602C 
                       TIMER0_TAILR_B
                               EQU              0x4003602C  ; Timer interval
   24 00000000         
   25 00000000 40036038 
                       TIMER0_TAPR
                               EQU              0x40036038
   26 00000000 4003603C 
                       TIMER0_TAPR_B
                               EQU              0x4003603C
   27 00000000         
   28 00000000 4003604C 



ARM Macro Assembler    Page 2 


                       TIMER0_TAR_B
                               EQU              0x4003604C  ; Timer register
   29 00000000 40036050 
                       TIMER0_TAV
                               EQU              0x40036050  ; Timer register
   30 00000000         
   31 00000000 40036030 
                       TIMER0_TAMATCHR
                               EQU              0x40036030  ; Timer register
   32 00000000 40036034 
                       TIMER0_TAMATCHR_B
                               EQU              0x40036034  ; Timer register
   33 00000000         
   34 00000000 40036040 
                       TIMER0_TAPMR
                               EQU              0x40036040  ; Timer register
   35 00000000 40036044 
                       TIMER0_TAPMR_B
                               EQU              0x40036044  ; Timer register
   36 00000000         
   37 00000000         ;GPIO Registers
   38 00000000 40025010 
                       GPIO_PORTF_DATA
                               EQU              0x40025010  ; Access BIT2
   39 00000000 40025400 
                       GPIO_PORTF_DIR
                               EQU              0x40025400  ; Port Direction
   40 00000000 40025420 
                       GPIO_PORTF_AFSEL
                               EQU              0x40025420  ; Alt Function enab
                                                            le
   41 00000000 4002551C 
                       GPIO_PORTF_DEN
                               EQU              0x4002551C  ; Digital Enable
   42 00000000 40025528 
                       GPIO_PORTF_AMSEL
                               EQU              0x40025528  ; Analog enable
   43 00000000 4002552C 
                       GPIO_PORTF_PCTL
                               EQU              0x4002552C  ; Alternate Functio
                                                            ns
   44 00000000         
   45 00000000         ;System Registers
   46 00000000 400FE608 
                       SYSCTL_RCGCGPIO
                               EQU              0x400FE608  ; GPIO Gate Control
                                                            
   47 00000000 400FE65C 
                       SYSCTL_RCGCTIMER
                               EQU              0x400FE65C  ; GPTM Gate Control
                                                            
   48 00000000         ; 32/64-bit Timer 0
   49 00000000         
   50 00000000         ;---------------------------------------------------
   51 00000000 01312D00 
                       MAX     EQU              0x1312D00   ; 20e6 useconds
   52 00000000 000F4240 
                       DECREASE
                               EQU              0xF4240



ARM Macro Assembler    Page 3 


   53 00000000 0007A120 
                       MAX_TIMERB
                               EQU              0x7A120
   54 00000000         ;---------------------------------------------------
   55 00000000         
   56 00000000                 AREA             routines, CODE, READONLY
   57 00000000                 THUMB
   58 00000000                 EXPORT           WideTimer0A_Handler
   59 00000000                 EXPORT           WideTimer0B_Handler
   60 00000000                 EXPORT           Init_Timer_20s
   61 00000000         
   62 00000000         ;---------------------------------------------------    
                        
   63 00000000         WideTimer0A_Handler
                               PROC
   64 00000000 B500            PUSH{LR}
   65 00000002 4949            LDR              R1, =TIMER0_ICR
   66 00000004 F04F 000F       MOV              R0, #0xF
   67 00000008 6008            STR              R0, [R1]
   68 0000000A         End_Of_Mine_Placement
   69 0000000A         
   70 0000000A F85D EB04       POP{LR}
   71 0000000E 4770            BX               LR
   72 00000010                 ENDP
   73 00000010         ;---------------------------------------------------
   74 00000010         WideTimer0B_Handler
                               PROC
   75 00000010 B500            PUSH{LR}
   76 00000012         ; clear interrupt flag
   77 00000012 4945            LDR              R1, =TIMER0_ICR
   78 00000014 F640 1211       MOV              R2, #0x911
   79 00000018 4610            MOV              R0, R2      ; clear the interru
                                                            pts that are
   80 0000001A         ; due to MATCH and TIME-OUT
   81 0000001A 6008            STR              R0, [R1]
   82 0000001C         
   83 0000001C 4943            LDR              R1, =TIMER0_TAR_B
   84 0000001E 6808            LDR              R0, [R1]
   85 00000020 4943            LDR              R1, = MAX
   86 00000022 4288            CMP              R0, R1      ; check if the time
                                                            r is reset
   87 00000024         ; meaning 20s have passed
   88 00000024 D0F1            BEQ              End_Of_Mine_Placement
   89 00000026         
   90 00000026         
   91 00000026 4A41            LDR              R2, =TIMER0_TAR_B
   92 00000028 6811            LDR              R1, [R2]
   93 0000002A 4842            LDR              R0, =DECREASE
   94 0000002C EBA1 0000       SUB              R0, R1, R0  ; set the next MATC
                                                            H interrupt
   95 00000030 4941            LDR              R1, =TIMER0_TAMATCHR_B
   96 00000032 6008            STR              R0, [R1]    ; store it
   97 00000034         
   98 00000034         ; Toggle PortF Data, just for demonstration
   99 00000034 4941            LDR              R1, = GPIO_PORTF_DATA
  100 00000036 6808            LDR              R0,[R1]
  101 00000038 F080 0004       EOR              R0,R0,#0x04
  102 0000003C 6008            STR              R0, [R1]
  103 0000003E         



ARM Macro Assembler    Page 4 


  104 0000003E         ; change the interrupt interval
  105 0000003E         ;LDR R1, =TIMER0_TAILR 
  106 0000003E         ;LDR R0 , [R1]
  107 0000003E         ;EOR R0, R0, #0x0A  ; 30usec <--> 20usec
  108 0000003E         ;STR R0, [R1]
  109 0000003E F85D EB04       POP{LR}
  110 00000042 4770            BX               LR
  111 00000044                 ENDP
  112 00000044         
  113 00000044         Init_Timer_20s
                               PROC
  114 00000044 B403            PUSH{R0-R1}
  115 00000046 493E            LDR              R1, =SYSCTL_RCGCGPIO 
                                                            ; start GPIO clock
  116 00000048 6808            LDR              R0, [R1]
  117 0000004A F040 0020       ORR              R0, R0, #0x20 ; set bit 5 for p
                                                            ort F
  118 0000004E 6008            STR              R0, [R1]
  119 00000050 BF00            NOP                          ; allow clock to se
                                                            ttle
  120 00000052 BF00            NOP
  121 00000054 BF00            NOP
  122 00000056 493B            LDR              R1, =GPIO_PORTF_DIR ; set direc
                                                            tion of PF2
  123 00000058 6808            LDR              R0, [R1]
  124 0000005A F040 0004       ORR              R0, R0, #0x04 ; set bit2 for ou
                                                            tput
  125 0000005E 6008            STR              R0, [R1]
  126 00000060 4939            LDR              R1, =GPIO_PORTF_AFSEL ; regular
                                                             port function
  127 00000062 6808            LDR              R0, [R1]
  128 00000064 F020 0004       BIC              R0, R0, #0x04
  129 00000068 6008            STR              R0, [R1]
  130 0000006A 4938            LDR              R1, =GPIO_PORTF_PCTL ; no alter
                                                            nate function
  131 0000006C 6808            LDR              R0, [R1]
  132 0000006E F420 6070       BIC              R0, R0, #0x00000F00
  133 00000072 6008            STR              R0, [R1]
  134 00000074 4936            LDR              R1, =GPIO_PORTF_AMSEL 
                                                            ; disable analog
  135 00000076 F04F 0000       MOV              R0, #0
  136 0000007A 6008            STR              R0, [R1]
  137 0000007C 4935            LDR              R1, =GPIO_PORTF_DEN ; enable po
                                                            rt digital
  138 0000007E 6808            LDR              R0, [R1]
  139 00000080 F040 0004       ORR              R0, R0, #0x04
  140 00000084 6008            STR              R0, [R1]
  141 00000086         
  142 00000086 4934            LDR              R1, =SYSCTL_RCGCTIMER ; Start 3
                                                            2/64-bit Timer 0
  143 00000088 6808            LDR              R0, [R1]
  144 0000008A F040 0001       ORR              R0, R0, #0x01
  145 0000008E 6008            STR              R0, [R1]
  146 00000090 BF00            NOP                          ; allow clock to se
                                                            ttle
  147 00000092 BF00            NOP
  148 00000094 BF00            NOP
  149 00000096 4931            LDR              R1, =TIMER0_CTL ; disable timer
                                                             during setup LDR R



ARM Macro Assembler    Page 5 


                                                            2, [R1]
  150 00000098 6808            LDR              R0, [R1]
  151 0000009A F240 1201       MOV              R2, #0x101
  152 0000009E EA20 0002       BIC              R0, R0, R2  ; clear A and B
  153 000000A2 6008            STR              R0, [R1]
  154 000000A4 492E            LDR              R1, =TIMER0_CFG 
                                                            ; set 32 bit mode
  155 000000A6 F04F 0004       MOV              R0, #0x04
  156 000000AA 6008            STR              R0, [R1]
  157 000000AC 492D            LDR              R1, =TIMER0_TAMR_B
  158 000000AE F04F 0061       MOV              R0, #0x61   ; set to one shot, 
                                                            count down
  159 000000B2 6008            STR              R0, [R1]
  160 000000B4         
  161 000000B4         ;//////////////////////////////
  162 000000B4 491E            LDR              R1, =MAX
  163 000000B6 481F            LDR              R0, =DECREASE
  164 000000B8 EBA1 0000       SUB              R0, R1, R0
  165 000000BC 491E            LDR              R1, =TIMER0_TAMATCHR_B
  166 000000BE 6008            STR              R0, [R1]
  167 000000C0         ;//////////////////////////////
  168 000000C0         
  169 000000C0         ;//////////////////////////////
  170 000000C0 4929            LDR              R1, =TIMER0_TAILR_B ; initializ
                                                            e match clocks
  171 000000C2 481B            LDR              R0, =MAX
  172 000000C4 6008            STR              R0, [R1]
  173 000000C6         ;//////////////////////////////
  174 000000C6         
  175 000000C6 4929            LDR              R1, =TIMER0_TAPR_B
  176 000000C8 F04F 000F       MOV              R0, #15     ; divide clock by 1
                                                            6 to
  177 000000CC 6008            STR              R0, [R1]    ; get 1us clocks
  178 000000CE         ; LDR R1, =TIMER0_TAPMR_B
  179 000000CE         ; MOV R0, #15 ; divide clock by 16 to
  180 000000CE         ; STR R0, [R1] ; get 1us clocks
  181 000000CE 4928            LDR              R1, =TIMER0_IMR ; enable timeou
                                                            t interrupt
  182 000000D0 F640 1001       MOV              R0, #0x901  ; A and B interrupt
                                                             enable
  183 000000D4 6008            STR              R0, [R1]
  184 000000D6         ; - - - - - - - - - -- - - - - - -
  185 000000D6 4927            LDR              R1, =TIMER0_TAMR
  186 000000D8 F04F 0001       MOV              R0, #0x01   ; set to one shot, 
                                                            count down, wait tr
                                                            igger enabled
  187 000000DC 6008            STR              R0, [R1]
  188 000000DE 4926            LDR              R1, =TIMER0_TAPR
  189 000000E0 F04F 000F       MOV              R0, #15     ; divide clock by 1
                                                            6 to
  190 000000E4 6008            STR              R0, [R1]    ; get 1us clocks
  191 000000E6 4925            LDR              R1, =TIMER0_TAILR ; initialize 
                                                            match clocks
  192 000000E8 4825            LDR              R0, =MAX_TIMERB
  193 000000EA 6008            STR              R0, [R1]
  194 000000EC         
  195 000000EC         ; - - - - - - - - - -- - - - - - -
  196 000000EC         ; Configure interrupt priorities
  197 000000EC         ; Timer0A is interrupt #94.



ARM Macro Assembler    Page 6 


  198 000000EC         ; Interrupts 92-95 are handled by NVIC register PRI23.
  199 000000EC         ; set NVIC interrupt 94 to priority 2
  200 000000EC 4925            LDR              R1, =NVIC_PRI4
  201 000000EE 6808            LDR              R0, [R1]
  202 000000F0 F64F 72FF 
              F2C0 0200        MOV32            R2, #0x0000FFFF
  203 000000F8 EA00 0002       AND              R0, R0, R2  ; clear interrupt 1
                                                            9 priority
  204 000000FC F240 0200 
              F2C4 0240        MOV32            R2,  #0x40400000
  205 00000104 EA40 0002       ORR              R0, R0, R2  ; set interrupt 19 
                                                            priority to 2
  206 00000108 6008            STR              R0, [R1]
  207 0000010A         ; NVIC has to be enabled
  208 0000010A         ; Interrupts 64-95 are handled by NVIC register EN2
  209 0000010A         ; Interrupt 94 is controlled by bit 30
  210 0000010A 491F            LDR              R1, =NVIC_EN0
  211 0000010C 6808            LDR              R0, [R1]
  212 0000010E F040 4040       ORR              R0, R0, #0xC0000000 ; set bit 3
                                                            0 to enable interru
                                                            pt 94-95
  213 00000112 6008            STR              R0, [R1]
  214 00000114         ; Enable timer
  215 00000114 4911            LDR              R1, =TIMER0_CTL
  216 00000116 6808            LDR              R0, [R1]
  217 00000118 F240 3203       MOV              R2, #0x303
  218 0000011C EA40 0002       ORR              R0, R0, R2  ; set bit0 to enabl
                                                            e A and B
  219 00000120 6008            STR              R0, [R1]    ; and bit 1 to stal
                                                            l on debug
  220 00000122 BC03            POP{R0-R1}
  221 00000124 4770            BX               LR          ; return
  222 00000126                 ENDP
  223 00000126                 END
              00 00 40036024 
              4003604C 
              01312D00 
              000F4240 
              40036034 
              40025010 
              400FE608 
              40025400 
              40025420 
              4002552C 
              40025528 
              4002551C 
              400FE65C 
              4003600C 
              40036000 
              40036008 
              4003602C 
              4003603C 
              40036018 
              40036004 
              40036038 
              40036028 
              0007A120 
              E000E41C 
              E000E108 



ARM Macro Assembler    Page 7 


Command Line: --debug --xref --diag_suppress=9931 --cpu=Cortex-M4.fp --apcs=int
erwork --depend=.\objects\init_timer_20s.d -o.\objects\init_timer_20s.o -I.\RTE
\_q1 -ID:\Keil_v5\ARM\PACK\Keil\TM4C_DFP\1.1.0\Device\Include\TM4C123 -ID:\Keil
_v5\ARM\CMSIS\Include --predefine="__EVAL SETA 1" --predefine="__UVISION_VERSIO
N SETA 526" --predefine="TM4C123GH6PM SETA 1" --list=.\listings\init_timer_20s.
lst Init_Timer_20s.s



ARM Macro Assembler    Page 1 Alphabetic symbol ordering
Relocatable symbols

End_Of_Mine_Placement 0000000A

Symbol: End_Of_Mine_Placement
   Definitions
      At line 68 in file Init_Timer_20s.s
   Uses
      At line 88 in file Init_Timer_20s.s
Comment: End_Of_Mine_Placement used once
Init_Timer_20s 00000044

Symbol: Init_Timer_20s
   Definitions
      At line 113 in file Init_Timer_20s.s
   Uses
      At line 60 in file Init_Timer_20s.s
Comment: Init_Timer_20s used once
WideTimer0A_Handler 00000000

Symbol: WideTimer0A_Handler
   Definitions
      At line 63 in file Init_Timer_20s.s
   Uses
      At line 58 in file Init_Timer_20s.s
Comment: WideTimer0A_Handler used once
WideTimer0B_Handler 00000010

Symbol: WideTimer0B_Handler
   Definitions
      At line 74 in file Init_Timer_20s.s
   Uses
      At line 59 in file Init_Timer_20s.s
Comment: WideTimer0B_Handler used once
routines 00000000

Symbol: routines
   Definitions
      At line 56 in file Init_Timer_20s.s
   Uses
      None
Comment: routines unused
5 symbols



ARM Macro Assembler    Page 1 Alphabetic symbol ordering
Absolute symbols

DECREASE 000F4240

Symbol: DECREASE
   Definitions
      At line 52 in file Init_Timer_20s.s
   Uses
      At line 93 in file Init_Timer_20s.s
      At line 163 in file Init_Timer_20s.s

GPIO_PORTF_AFSEL 40025420

Symbol: GPIO_PORTF_AFSEL
   Definitions
      At line 40 in file Init_Timer_20s.s
   Uses
      At line 126 in file Init_Timer_20s.s
Comment: GPIO_PORTF_AFSEL used once
GPIO_PORTF_AMSEL 40025528

Symbol: GPIO_PORTF_AMSEL
   Definitions
      At line 42 in file Init_Timer_20s.s
   Uses
      At line 134 in file Init_Timer_20s.s
Comment: GPIO_PORTF_AMSEL used once
GPIO_PORTF_DATA 40025010

Symbol: GPIO_PORTF_DATA
   Definitions
      At line 38 in file Init_Timer_20s.s
   Uses
      At line 99 in file Init_Timer_20s.s
Comment: GPIO_PORTF_DATA used once
GPIO_PORTF_DEN 4002551C

Symbol: GPIO_PORTF_DEN
   Definitions
      At line 41 in file Init_Timer_20s.s
   Uses
      At line 137 in file Init_Timer_20s.s
Comment: GPIO_PORTF_DEN used once
GPIO_PORTF_DIR 40025400

Symbol: GPIO_PORTF_DIR
   Definitions
      At line 39 in file Init_Timer_20s.s
   Uses
      At line 122 in file Init_Timer_20s.s
Comment: GPIO_PORTF_DIR used once
GPIO_PORTF_PCTL 4002552C

Symbol: GPIO_PORTF_PCTL
   Definitions
      At line 43 in file Init_Timer_20s.s
   Uses
      At line 130 in file Init_Timer_20s.s
Comment: GPIO_PORTF_PCTL used once
MAX 01312D00




ARM Macro Assembler    Page 2 Alphabetic symbol ordering
Absolute symbols

Symbol: MAX
   Definitions
      At line 51 in file Init_Timer_20s.s
   Uses
      At line 85 in file Init_Timer_20s.s
      At line 162 in file Init_Timer_20s.s
      At line 171 in file Init_Timer_20s.s

MAX_TIMERB 0007A120

Symbol: MAX_TIMERB
   Definitions
      At line 53 in file Init_Timer_20s.s
   Uses
      At line 192 in file Init_Timer_20s.s
Comment: MAX_TIMERB used once
NVIC_EN0 E000E108

Symbol: NVIC_EN0
   Definitions
      At line 8 in file Init_Timer_20s.s
   Uses
      At line 210 in file Init_Timer_20s.s
Comment: NVIC_EN0 used once
NVIC_PRI4 E000E41C

Symbol: NVIC_PRI4
   Definitions
      At line 9 in file Init_Timer_20s.s
   Uses
      At line 200 in file Init_Timer_20s.s
Comment: NVIC_PRI4 used once
SYSCTL_RCGCGPIO 400FE608

Symbol: SYSCTL_RCGCGPIO
   Definitions
      At line 46 in file Init_Timer_20s.s
   Uses
      At line 115 in file Init_Timer_20s.s
Comment: SYSCTL_RCGCGPIO used once
SYSCTL_RCGCTIMER 400FE65C

Symbol: SYSCTL_RCGCTIMER
   Definitions
      At line 47 in file Init_Timer_20s.s
   Uses
      At line 142 in file Init_Timer_20s.s
Comment: SYSCTL_RCGCTIMER used once
TIMER0_CFG 40036000

Symbol: TIMER0_CFG
   Definitions
      At line 12 in file Init_Timer_20s.s
   Uses
      At line 154 in file Init_Timer_20s.s
Comment: TIMER0_CFG used once
TIMER0_CTL 4003600C

Symbol: TIMER0_CTL



ARM Macro Assembler    Page 3 Alphabetic symbol ordering
Absolute symbols

   Definitions
      At line 17 in file Init_Timer_20s.s
   Uses
      At line 149 in file Init_Timer_20s.s
      At line 215 in file Init_Timer_20s.s

TIMER0_ICR 40036024

Symbol: TIMER0_ICR
   Definitions
      At line 20 in file Init_Timer_20s.s
   Uses
      At line 65 in file Init_Timer_20s.s
      At line 77 in file Init_Timer_20s.s

TIMER0_IMR 40036018

Symbol: TIMER0_IMR
   Definitions
      At line 18 in file Init_Timer_20s.s
   Uses
      At line 181 in file Init_Timer_20s.s
Comment: TIMER0_IMR used once
TIMER0_RIS 4003601C

Symbol: TIMER0_RIS
   Definitions
      At line 19 in file Init_Timer_20s.s
   Uses
      None
Comment: TIMER0_RIS unused
TIMER0_TAILR 40036028

Symbol: TIMER0_TAILR
   Definitions
      At line 22 in file Init_Timer_20s.s
   Uses
      At line 191 in file Init_Timer_20s.s
Comment: TIMER0_TAILR used once
TIMER0_TAILR_B 4003602C

Symbol: TIMER0_TAILR_B
   Definitions
      At line 23 in file Init_Timer_20s.s
   Uses
      At line 170 in file Init_Timer_20s.s
Comment: TIMER0_TAILR_B used once
TIMER0_TAMATCHR 40036030

Symbol: TIMER0_TAMATCHR
   Definitions
      At line 31 in file Init_Timer_20s.s
   Uses
      None
Comment: TIMER0_TAMATCHR unused
TIMER0_TAMATCHR_B 40036034

Symbol: TIMER0_TAMATCHR_B
   Definitions



ARM Macro Assembler    Page 4 Alphabetic symbol ordering
Absolute symbols

      At line 32 in file Init_Timer_20s.s
   Uses
      At line 95 in file Init_Timer_20s.s
      At line 165 in file Init_Timer_20s.s

TIMER0_TAMR 40036004

Symbol: TIMER0_TAMR
   Definitions
      At line 14 in file Init_Timer_20s.s
   Uses
      At line 185 in file Init_Timer_20s.s
Comment: TIMER0_TAMR used once
TIMER0_TAMR_B 40036008

Symbol: TIMER0_TAMR_B
   Definitions
      At line 15 in file Init_Timer_20s.s
   Uses
      At line 157 in file Init_Timer_20s.s
Comment: TIMER0_TAMR_B used once
TIMER0_TAPMR 40036040

Symbol: TIMER0_TAPMR
   Definitions
      At line 34 in file Init_Timer_20s.s
   Uses
      None
Comment: TIMER0_TAPMR unused
TIMER0_TAPMR_B 40036044

Symbol: TIMER0_TAPMR_B
   Definitions
      At line 35 in file Init_Timer_20s.s
   Uses
      None
Comment: TIMER0_TAPMR_B unused
TIMER0_TAPR 40036038

Symbol: TIMER0_TAPR
   Definitions
      At line 25 in file Init_Timer_20s.s
   Uses
      At line 188 in file Init_Timer_20s.s
Comment: TIMER0_TAPR used once
TIMER0_TAPR_B 4003603C

Symbol: TIMER0_TAPR_B
   Definitions
      At line 26 in file Init_Timer_20s.s
   Uses
      At line 175 in file Init_Timer_20s.s
Comment: TIMER0_TAPR_B used once
TIMER0_TAR_B 4003604C

Symbol: TIMER0_TAR_B
   Definitions
      At line 28 in file Init_Timer_20s.s
   Uses



ARM Macro Assembler    Page 5 Alphabetic symbol ordering
Absolute symbols

      At line 83 in file Init_Timer_20s.s
      At line 91 in file Init_Timer_20s.s

TIMER0_TAV 40036050

Symbol: TIMER0_TAV
   Definitions
      At line 29 in file Init_Timer_20s.s
   Uses
      None
Comment: TIMER0_TAV unused
30 symbols
371 symbols in table
